Archive member included to satisfy reference by file (symbol)

/home/freedomli/APP/toolchain_linux-x86_64_x86_64-zephyr-elf/x86_64-zephyr-elf/bin/../lib/gcc/x86_64-zephyr-elf/12.2.0/../../../../x86_64-zephyr-elf/lib/libc.a(lib_a-memcpy.o)
                              ./x64_cpu_drivers/x64_dt.o (memcpy)
/home/freedomli/APP/toolchain_linux-x86_64_x86_64-zephyr-elf/x86_64-zephyr-elf/bin/../lib/gcc/x86_64-zephyr-elf/12.2.0/../../../../x86_64-zephyr-elf/lib/libc.a(lib_a-memset.o)
                              ./x64_cpu_drivers/x64_dt.o (memset)

Discarded input sections

 .group         0x0000000000000000        0xc ./x64_cpu_drivers/x64_apic.o
 .group         0x0000000000000000        0xc ./x64_cpu_drivers/x64_apic.o
 .group         0x0000000000000000        0xc ./x64_cpu_drivers/x64_apic.o
 .group         0x0000000000000000        0xc ./x64_cpu_drivers/x64_apic.o
 .group         0x0000000000000000        0xc ./x64_cpu_drivers/x64_apic.o
 .group         0x0000000000000000        0xc ./x64_cpu_drivers/x64_apic.o
 .group         0x0000000000000000        0xc ./x64_cpu_drivers/x64_apic.o
 .group         0x0000000000000000        0xc ./x64_cpu_drivers/x64_apic.o
 .group         0x0000000000000000        0xc ./x64_cpu_drivers/x64_apic.o
 .group         0x0000000000000000        0xc ./x64_cpu_drivers/x64_apic.o
 .group         0x0000000000000000        0xc ./x64_cpu_drivers/x64_dt.o
 .group         0x0000000000000000        0xc ./x64_cpu_drivers/x64_dt.o
 .group         0x0000000000000000        0xc ./x64_cpu_drivers/x64_dt.o
 .group         0x0000000000000000        0xc ./x64_cpu_drivers/x64_dt.o
 .group         0x0000000000000000        0xc ./x64_cpu_drivers/x64_dt.o
 .group         0x0000000000000000        0xc ./x64_cpu_drivers/x64_dt.o
 .group         0x0000000000000000        0xc ./x64_cpu_drivers/x64_dt.o
 .group         0x0000000000000000        0xc ./x64_cpu_drivers/x64_dt.o
 .group         0x0000000000000000        0xc ./x64_cpu_drivers/x64_dt.o
 .group         0x0000000000000000        0xc ./x64_cpu_drivers/x64_dt.o
 .group         0x0000000000000000        0xc ./x64_cpu_drivers/x64_dt.o
 .group         0x0000000000000000        0xc ./x64_cpu_drivers/x64_dt.o
 .group         0x0000000000000000        0xc ./x64_cpu_drivers/x64_dt.o
 .group         0x0000000000000000        0xc ./x64_cpu_drivers/x64_dt.o
 .group         0x0000000000000000        0xc ./x64_cpu_drivers/x64_dt.o
 .group         0x0000000000000000        0xc ./x64_cpu_drivers/x64_dt.o
 .group         0x0000000000000000        0xc ./x64_cpu_drivers/x64_dt.o
 .group         0x0000000000000000        0xc ./x64_cpu_drivers/x64_dt.o
 .group         0x0000000000000000        0xc ./x64_cpu_drivers/x64_dt.o
 .group         0x0000000000000000        0xc ./x64_cpu_drivers/x64_dt.o
 .group         0x0000000000000000        0xc ./x64_cpu_drivers/x64_dt.o
 .group         0x0000000000000000        0xc ./x64_cpu_drivers/x64_dt.o
 .group         0x0000000000000000        0xc ./x64_cpu_drivers/x64_dt.o
 .group         0x0000000000000000        0xc ./x64_cpu_drivers/x64_dt.o
 .group         0x0000000000000000        0xc ./x64_cpu_drivers/x64_dt.o
 .group         0x0000000000000000        0xc ./x64_cpu_drivers/x64_dt.o
 .debug_macro   0x0000000000000000      0x898 ./x64_cpu_drivers/x64_dt.o
 .debug_macro   0x0000000000000000       0x22 ./x64_cpu_drivers/x64_dt.o
 .debug_macro   0x0000000000000000       0xfd ./x64_cpu_drivers/x64_dt.o
 .debug_macro   0x0000000000000000       0x6a ./x64_cpu_drivers/x64_dt.o
 .debug_macro   0x0000000000000000      0x1df ./x64_cpu_drivers/x64_dt.o
 .group         0x0000000000000000        0xc ./x64_cpu_drivers/x64_mmu.o
 .group         0x0000000000000000        0xc ./x64_cpu_drivers/x64_mmu.o
 .debug_macro   0x0000000000000000      0x898 ./x64_cpu_drivers/x64_mmu.o
 .group         0x0000000000000000        0xc ./startup/multiboot2.o
 .group         0x0000000000000000        0xc ./startup/multiboot2.o
 .debug_macro   0x0000000000000000      0x898 ./startup/multiboot2.o
 .group         0x0000000000000000        0xc ./startup/x64_isr_handler.o
 .group         0x0000000000000000        0xc ./startup/x64_isr_handler.o
 .group         0x0000000000000000        0xc ./startup/x64_isr_handler.o
 .group         0x0000000000000000        0xc ./startup/x64_isr_handler.o
 .group         0x0000000000000000        0xc ./startup/x64_isr_handler.o
 .group         0x0000000000000000        0xc ./startup/x64_isr_handler.o
 .group         0x0000000000000000        0xc ./startup/x64_isr_handler.o
 .debug_macro   0x0000000000000000      0x898 ./startup/x64_isr_handler.o
 .debug_macro   0x0000000000000000       0x22 ./startup/x64_isr_handler.o
 .debug_macro   0x0000000000000000       0x56 ./startup/x64_isr_handler.o
 .debug_macro   0x0000000000000000       0x51 ./startup/x64_isr_handler.o
 .debug_macro   0x0000000000000000       0xfd ./startup/x64_isr_handler.o
 .debug_macro   0x0000000000000000       0x6a ./startup/x64_isr_handler.o
 .debug_macro   0x0000000000000000      0x1df ./startup/x64_isr_handler.o
 .group         0x0000000000000000        0xc ./startup/x64_startup.o
 .group         0x0000000000000000        0xc ./startup/x64_startup.o
 .group         0x0000000000000000        0xc ./startup/x64_startup.o
 .group         0x0000000000000000        0xc ./startup/x64_startup.o
 .group         0x0000000000000000        0xc ./startup/x64_startup.o
 .group         0x0000000000000000        0xc ./startup/x64_startup.o
 .group         0x0000000000000000        0xc ./startup/x64_startup.o
 .group         0x0000000000000000        0xc ./startup/x64_startup.o
 .group         0x0000000000000000        0xc ./startup/x64_startup.o
 .group         0x0000000000000000        0xc ./startup/x64_startup.o
 .group         0x0000000000000000        0xc ./startup/x64_startup.o
 .group         0x0000000000000000        0xc ./startup/x64_startup.o
 .group         0x0000000000000000        0xc ./startup/x64_startup.o
 .group         0x0000000000000000        0xc ./startup/x64_startup.o
 .group         0x0000000000000000        0xc ./startup/x64_startup.o
 .group         0x0000000000000000        0xc ./startup/x64_startup.o
 .group         0x0000000000000000        0xc ./startup/x64_startup.o
 .group         0x0000000000000000        0xc ./startup/x64_startup.o
 .group         0x0000000000000000        0xc ./startup/x64_startup.o
 .group         0x0000000000000000        0xc ./startup/x64_startup.o
 .group         0x0000000000000000        0xc ./startup/x64_startup.o
 .group         0x0000000000000000        0xc ./startup/x64_startup.o
 .group         0x0000000000000000        0xc ./startup/x64_startup.o
 .debug_macro   0x0000000000000000      0x898 ./startup/x64_startup.o
 .debug_macro   0x0000000000000000       0x22 ./startup/x64_startup.o
 .debug_macro   0x0000000000000000       0x56 ./startup/x64_startup.o
 .debug_macro   0x0000000000000000       0x51 ./startup/x64_startup.o
 .debug_macro   0x0000000000000000       0xfd ./startup/x64_startup.o
 .debug_macro   0x0000000000000000       0x6a ./startup/x64_startup.o
 .debug_macro   0x0000000000000000      0x1df ./startup/x64_startup.o
 .debug_macro   0x0000000000000000       0x19 ./startup/x64_startup.o
 .debug_macro   0x0000000000000000       0x35 ./startup/x64_startup.o
 .debug_macro   0x0000000000000000       0x34 ./startup/x64_startup.o
 .debug_macro   0x0000000000000000       0x16 ./startup/x64_startup.o
 .debug_macro   0x0000000000000000       0x43 ./startup/x64_startup.o
 .debug_macro   0x0000000000000000       0x34 ./startup/x64_startup.o
 .debug_macro   0x0000000000000000       0x10 ./startup/x64_startup.o
 .debug_macro   0x0000000000000000       0x58 ./startup/x64_startup.o
 .debug_macro   0x0000000000000000      0x182 ./startup/x64_startup.o
 .debug_macro   0x0000000000000000      0x356 ./startup/x64_startup.o
 .debug_macro   0x0000000000000000       0x35 ./startup/x64_startup.o
 .debug_macro   0x0000000000000000       0x4c ./startup/x64_startup.o
 .debug_macro   0x0000000000000000      0x11b ./startup/x64_startup.o

Memory Configuration

Name             Origin             Length             Attributes
MULTIBOOT        0x0000000000001000 0x0000000000002000 r
CODE             0x0000000000100000 0x0000000001000000 xr
RAM              0x0000000001100000 0x0000000004000000 rw
HEAP             0x0000000005100000 0x0000000004000000 rw
DATA_ROM         0x0000000009100000 0x0000000001000000 r
*default*        0x0000000000000000 0xffffffffffffffff

Linker script and memory map

LOAD ./x64_cpu_drivers/x64_apic.o
LOAD ./x64_cpu_drivers/x64_dt.o
LOAD ./x64_cpu_drivers/x64_mmu.o
LOAD ./startup/multiboot2.o
LOAD ./startup/x64_boot.o
LOAD ./startup/x64_isr.o
LOAD ./startup/x64_isr_handler.o
LOAD ./startup/x64_startup.o
LOAD /home/freedomli/APP/toolchain_linux-x86_64_x86_64-zephyr-elf/x86_64-zephyr-elf/bin/../lib/gcc/x86_64-zephyr-elf/12.2.0/libgcc.a
LOAD /home/freedomli/APP/toolchain_linux-x86_64_x86_64-zephyr-elf/x86_64-zephyr-elf/bin/../lib/gcc/x86_64-zephyr-elf/12.2.0/../../../../x86_64-zephyr-elf/lib/libc.a
LOAD /home/freedomli/APP/toolchain_linux-x86_64_x86_64-zephyr-elf/x86_64-zephyr-elf/bin/../lib/gcc/x86_64-zephyr-elf/12.2.0/libgcc.a

.multiboot      0x0000000000001000       0x40
                0x0000000000001000                . = ALIGN (0x4)
 *(.multiboot_header)
 .multiboot_header
                0x0000000000001000       0x40 ./startup/x64_boot.o
                0x0000000000001000                _start

.text           0x0000000000100000     0x1420
                0x0000000000100000                __code_start = .
                0x0000000000100000                . = ALIGN (0x4)
 *(.text)
 .text          0x0000000000100000       0x99 ./x64_cpu_drivers/x64_apic.o
                0x0000000000100000                cpu_apic_check
                0x000000000010005d                cpu_apic_enable
                0x0000000000100083                apic_init
 .text          0x0000000000100099      0x1e5 ./x64_cpu_drivers/x64_dt.o
                0x0000000000100099                x64_create_gate_descriptor
                0x00000000001001a5                x64_add_descriptor_to_idt
                0x000000000010020b                x64_flush_idtr_register
                0x0000000000100254                x64_flush_tr_register
 .text          0x000000000010027e        0x0 ./x64_cpu_drivers/x64_mmu.o
 .text          0x000000000010027e      0xa69 ./startup/multiboot2.o
                0x000000000010027e                cmain
                0x00000000001009f9                printf
                0x0000000000100cc0                sumab
 *fill*         0x0000000000100ce7        0x1 
 .text          0x0000000000100ce8        0x0 ./startup/x64_boot.o
 .text          0x0000000000100ce8      0x274 ./startup/x64_isr.o
                0x0000000000100d3b                divide_error_exception_handler
                0x0000000000100d47                debug_exception_handler
                0x0000000000100d53                nmi_exception_handler
                0x0000000000100d5f                breakpoint_exception_handler
                0x0000000000100d6e                overflow_exception_handler
                0x0000000000100d7d                bound_range_exception_handler
                0x0000000000100d8c                invalid_opcode_exception_handler
                0x0000000000100d9b                device_not_available_exception_handler
                0x0000000000100daa                double_fault_exception_handler
                0x0000000000100db7                coprocessor_segment_overrun_exception_handler
                0x0000000000100dc6                invalid_tss_exception_handler
                0x0000000000100dd3                segment_not_present_exception_handler
                0x0000000000100de0                stack_fault_exception_handler
                0x0000000000100ded                general_protection_exception_handler
                0x0000000000100dfa                page_fault_exception_handler
                0x0000000000100e07                reserved_exception_handler
                0x0000000000100e16                fpu_fp_error_exception_handler
                0x0000000000100e25                aligment_check_exception_handler
                0x0000000000100e32                machine_cahck_exception_handler
                0x0000000000100e41                simd_fp_exception_handler
                0x0000000000100e50                virt_exception_exception_handler
                0x0000000000100e5d                exit0_handler
                0x0000000000100e6c                exit1_handler
                0x0000000000100e7b                exit2_handler
                0x0000000000100e8a                exit3_handler
                0x0000000000100e99                exit4_handler
                0x0000000000100ea8                exit5_handler
                0x0000000000100eb7                exit6_handler
                0x0000000000100ec6                exit7_handler
                0x0000000000100ed5                exit8_handler
                0x0000000000100ee4                exit9_handler
                0x0000000000100ef3                exit10_handler
                0x0000000000100f02                exit11_handler
                0x0000000000100f11                exit12_handler
                0x0000000000100f20                exit13_handler
                0x0000000000100f2f                exit14_handler
                0x0000000000100f3e                exit15_handler
                0x0000000000100f4d                exit16_handler
 .text          0x0000000000100f5c       0x22 ./startup/x64_isr_handler.o
                0x0000000000100f5c                x64_common_isr
 .text          0x0000000000100f7e      0x283 ./startup/x64_startup.o
                0x0000000000100f7e                x64_tss_init
                0x00000000001010cd                x64_idt_init
                0x00000000001011d5                divided_zero
 *fill*         0x0000000000101201        0xf 
 .text          0x0000000000101210      0x12d /home/freedomli/APP/toolchain_linux-x86_64_x86_64-zephyr-elf/x86_64-zephyr-elf/bin/../lib/gcc/x86_64-zephyr-elf/12.2.0/../../../../x86_64-zephyr-elf/lib/libc.a(lib_a-memcpy.o)
                0x0000000000101210                memcpy
 *fill*         0x000000000010133d        0x3 
 .text          0x0000000000101340       0xe0 /home/freedomli/APP/toolchain_linux-x86_64_x86_64-zephyr-elf/x86_64-zephyr-elf/bin/../lib/gcc/x86_64-zephyr-elf/12.2.0/../../../../x86_64-zephyr-elf/lib/libc.a(lib_a-memset.o)
                0x0000000000101340                memset

.iplt           0x0000000000101420        0x0
 .iplt          0x0000000000101420        0x0 ./x64_cpu_drivers/x64_apic.o

.text.multiboot_entry
                0x0000000000101420       0x7e
 .text.multiboot_entry
                0x0000000000101420       0x7e ./startup/x64_boot.o
                0x0000000000101420                multiboot_entry

.text.mmu_translate_table_init
                0x000000000010149e       0x3c
 .text.mmu_translate_table_init
                0x000000000010149e       0x3c ./startup/x64_boot.o
                0x000000000010149e                mmu_translate_table_init

.text.x64_start
                0x00000000001014da       0x32
 .text.x64_start
                0x00000000001014da       0x32 ./startup/x64_boot.o
                0x00000000001014da                x64_start

.isr_text
 *(.isr)

.gdt386         0x000000000010150c        0x4
                0x0000000000101510                . = ALIGN (0x8)
 *fill*         0x000000000010150c        0x4 
 *(.x86_gdt_section)

.rodata         0x0000000000101510      0x197
                0x0000000000101510                __rodata_start = .
 *(.rodata)
 .rodata        0x0000000000101510      0x197 ./startup/multiboot2.o
 *(.rodata.*)
                0x00000000001016a7                __rodata_end = .
                0x00000000001016a7                __code_end = .
                0x0000000009100000                __load_data_start = LOADADDR (.data)

.eh_frame       0x00000000001016a8      0x240
 .eh_frame      0x00000000001016a8       0x80 ./x64_cpu_drivers/x64_apic.o
 .eh_frame      0x0000000000101728       0x80 ./x64_cpu_drivers/x64_dt.o
                                         0x98 (size before relaxing)
 .eh_frame      0x00000000001017a8       0xc0 ./startup/multiboot2.o
                                         0xd8 (size before relaxing)
 .eh_frame      0x0000000000101868       0x20 ./startup/x64_isr_handler.o
                                         0x38 (size before relaxing)
 .eh_frame      0x0000000000101888       0x60 ./startup/x64_startup.o
                                         0x78 (size before relaxing)

.rela.dyn       0x00000000001018e8        0x0
 .rela.got      0x00000000001018e8        0x0 ./x64_cpu_drivers/x64_apic.o
 .rela.iplt     0x00000000001018e8        0x0 ./x64_cpu_drivers/x64_apic.o
 .rela.text.multiboot_entry
                0x00000000001018e8        0x0 ./x64_cpu_drivers/x64_apic.o

.data           0x0000000001100000   0x808000 load address 0x0000000009100000
                0x0000000001100000                __data_start = .
 *(.data)
 .data          0x0000000001100000        0x0 ./x64_cpu_drivers/x64_apic.o
 .data          0x0000000001100000        0x0 ./x64_cpu_drivers/x64_dt.o
 .data          0x0000000001100000        0x0 ./x64_cpu_drivers/x64_mmu.o
 .data          0x0000000001100000        0x0 ./startup/multiboot2.o
 .data          0x0000000001100000        0x0 ./startup/x64_boot.o
 .data          0x0000000001100000      0x13a ./startup/x64_isr.o
                0x0000000001100000                g_exception_handler_table_addr
                0x00000000011000a8                g_exception_handler_table_bytes
                0x00000000011000b0                g_interrupt_handler_table_addr
                0x0000000001100138                g_interrupt_handler_table_bytes
 .data          0x000000000110013a        0x0 ./startup/x64_isr_handler.o
 .data          0x000000000110013a        0x0 ./startup/x64_startup.o
 .data          0x000000000110013a        0x0 /home/freedomli/APP/toolchain_linux-x86_64_x86_64-zephyr-elf/x86_64-zephyr-elf/bin/../lib/gcc/x86_64-zephyr-elf/12.2.0/../../../../x86_64-zephyr-elf/lib/libc.a(lib_a-memcpy.o)
 .data          0x000000000110013a        0x0 /home/freedomli/APP/toolchain_linux-x86_64_x86_64-zephyr-elf/x86_64-zephyr-elf/bin/../lib/gcc/x86_64-zephyr-elf/12.2.0/../../../../x86_64-zephyr-elf/lib/libc.a(lib_a-memset.o)
 *(.data.*)
 *fill*         0x000000000110013a        0x2 
 .data.g_x64_gdt
                0x000000000110013c       0x30 ./startup/x64_boot.o
                0x000000000110013c                g_x64_gdt
                0x000000000110015c                g_gdt_tss_pos
 .data.g_x64_gdtr_loader
                0x000000000110016c        0xc ./startup/x64_boot.o
                0x000000000110016c                g_x64_gdtr_loader
 *fill*         0x0000000001100178      0xe88 
 .data.g_idtr   0x0000000001101000     0x1000 ./startup/x64_boot.o
                0x0000000001101000                g_idtr
 .data.x64_pml4e_table
                0x0000000001102000     0x1000 ./startup/x64_boot.o
                0x0000000001102000                x64_pml4e_table
 .data.x64_pdpte_table
                0x0000000001103000     0x1000 ./startup/x64_boot.o
                0x0000000001103000                x64_pdpte_table
 .data.x64_pde0_table
                0x0000000001104000     0x1000 ./startup/x64_boot.o
                0x0000000001104000                x64_pde0_table
 .data.x64_pde1_table
                0x0000000001105000     0x1000 ./startup/x64_boot.o
                0x0000000001105000                x64_pde1_table
 .data.x64_pde2_table
                0x0000000001106000     0x1000 ./startup/x64_boot.o
                0x0000000001106000                x64_pde2_table
 .data.x64_pde3_table
                0x0000000001107000     0x1000 ./startup/x64_boot.o
                0x0000000001107000                x64_pde3_table
 .data.x64_pte_table
                0x0000000001108000   0x800000 ./startup/x64_boot.o
                0x0000000001108000                x64_pte_table
                0x0000000001908000                __data_end = .

.got            0x0000000001908000        0x0 load address 0x0000000009908000
 .got           0x0000000001908000        0x0 ./x64_cpu_drivers/x64_apic.o

.got.plt        0x0000000001908000        0x0 load address 0x0000000009908000
 .got.plt       0x0000000001908000        0x0 ./x64_cpu_drivers/x64_apic.o

.igot.plt       0x0000000001908000        0x0 load address 0x0000000009908000
 .igot.plt      0x0000000001908000        0x0 ./x64_cpu_drivers/x64_apic.o

.bss            0x0000000001908000     0x2088 load address 0x0000000009908000
                0x0000000001908000                __bss_start = .
 *(COMMON)
 *(.bss)
 .bss           0x0000000001908000        0x0 ./x64_cpu_drivers/x64_apic.o
 .bss           0x0000000001908000        0x0 ./x64_cpu_drivers/x64_dt.o
 .bss           0x0000000001908000        0x0 ./x64_cpu_drivers/x64_mmu.o
 .bss           0x0000000001908000       0x10 ./startup/multiboot2.o
 .bss           0x0000000001908010        0x0 ./startup/x64_boot.o
 .bss           0x0000000001908010        0x0 ./startup/x64_isr.o
 .bss           0x0000000001908010        0x0 ./startup/x64_isr_handler.o
 *fill*         0x0000000001908010       0x10 
 .bss           0x0000000001908020     0x2068 ./startup/x64_startup.o
                0x0000000001908020                g_x64_idt
                0x0000000001909020                g_interrupt_stack
                0x0000000001909820                g_exception_stack
 .bss           0x000000000190a088        0x0 /home/freedomli/APP/toolchain_linux-x86_64_x86_64-zephyr-elf/x86_64-zephyr-elf/bin/../lib/gcc/x86_64-zephyr-elf/12.2.0/../../../../x86_64-zephyr-elf/lib/libc.a(lib_a-memcpy.o)
 .bss           0x000000000190a088        0x0 /home/freedomli/APP/toolchain_linux-x86_64_x86_64-zephyr-elf/x86_64-zephyr-elf/bin/../lib/gcc/x86_64-zephyr-elf/12.2.0/../../../../x86_64-zephyr-elf/lib/libc.a(lib_a-memset.o)
 *(.bss.*)
                0x000000000190a088                __bss_end = .
                0x000000000190a088                __stack_start = .

.stack          0x000000000190a0c0    0x10000 load address 0x0000000009908000
 *(.kernel.stack)
 .kernel.stack  0x000000000190a0c0    0x10000 ./startup/x64_boot.o
                0x000000000190a0c0                g_kernel_stack
                0x000000000191a0c0                __stack_end = .
                [!provide]                        PROVIDE (kernel_code_start = __code_start)
                [!provide]                        PROVIDE (kernel_code_end = (__code_start + LENGTH (CODE)))
                [!provide]                        PROVIDE (rodata_start = __rodata_start)
                [!provide]                        PROVIDE (rodata_end = __rodata_end)
                0x0000000009100000                PROVIDE (load_data_start = __load_data_start)
                0x0000000001100000                PROVIDE (data_start = __data_start)
                0x0000000001908000                PROVIDE (data_end = __data_end)
                0x0000000001908000                PROVIDE (bss_start = __bss_start)
                0x000000000190a088                PROVIDE (bss_end = __bss_end)
                0x000000000190a088                PROVIDE (stack_start = __stack_start)
                0x000000000191a0c0                PROVIDE (stack_end = __stack_end)
OUTPUT(x86_64_prj.elf elf64-x86-64)

.debug_info     0x0000000000000000     0x13f5
 .debug_info    0x0000000000000000      0x136 ./x64_cpu_drivers/x64_apic.o
 .debug_info    0x0000000000000136      0x377 ./x64_cpu_drivers/x64_dt.o
 .debug_info    0x00000000000004ad       0x22 ./x64_cpu_drivers/x64_mmu.o
 .debug_info    0x00000000000004cf      0x847 ./startup/multiboot2.o
 .debug_info    0x0000000000000d16       0x23 ./startup/x64_boot.o
 .debug_info    0x0000000000000d39       0x29 ./startup/x64_isr.o
 .debug_info    0x0000000000000d62       0xcc ./startup/x64_isr_handler.o
 .debug_info    0x0000000000000e2e      0x5c7 ./startup/x64_startup.o

.debug_abbrev   0x0000000000000000      0x6ea
 .debug_abbrev  0x0000000000000000       0xb1 ./x64_cpu_drivers/x64_apic.o
 .debug_abbrev  0x00000000000000b1      0x183 ./x64_cpu_drivers/x64_dt.o
 .debug_abbrev  0x0000000000000234       0x12 ./x64_cpu_drivers/x64_mmu.o
 .debug_abbrev  0x0000000000000246      0x259 ./startup/multiboot2.o
 .debug_abbrev  0x000000000000049f       0x12 ./startup/x64_boot.o
 .debug_abbrev  0x00000000000004b1       0x14 ./startup/x64_isr.o
 .debug_abbrev  0x00000000000004c5       0x7f ./startup/x64_isr_handler.o
 .debug_abbrev  0x0000000000000544      0x1a6 ./startup/x64_startup.o

.debug_aranges  0x0000000000000000      0x1a0
 .debug_aranges
                0x0000000000000000       0x30 ./x64_cpu_drivers/x64_apic.o
 .debug_aranges
                0x0000000000000030       0x30 ./x64_cpu_drivers/x64_dt.o
 .debug_aranges
                0x0000000000000060       0x20 ./x64_cpu_drivers/x64_mmu.o
 .debug_aranges
                0x0000000000000080       0x30 ./startup/multiboot2.o
 .debug_aranges
                0x00000000000000b0       0x60 ./startup/x64_boot.o
 .debug_aranges
                0x0000000000000110       0x30 ./startup/x64_isr.o
 .debug_aranges
                0x0000000000000140       0x30 ./startup/x64_isr_handler.o
 .debug_aranges
                0x0000000000000170       0x30 ./startup/x64_startup.o

.debug_macro    0x0000000000000000     0x254e
 .debug_macro   0x0000000000000000       0x7e ./x64_cpu_drivers/x64_apic.o
 .debug_macro   0x000000000000007e      0x898 ./x64_cpu_drivers/x64_apic.o
 .debug_macro   0x0000000000000916      0x19c ./x64_cpu_drivers/x64_apic.o
 .debug_macro   0x0000000000000ab2       0x22 ./x64_cpu_drivers/x64_apic.o
 .debug_macro   0x0000000000000ad4      0x37e ./x64_cpu_drivers/x64_apic.o
 .debug_macro   0x0000000000000e52       0x22 ./x64_cpu_drivers/x64_apic.o
 .debug_macro   0x0000000000000e74       0x56 ./x64_cpu_drivers/x64_apic.o
 .debug_macro   0x0000000000000eca       0x51 ./x64_cpu_drivers/x64_apic.o
 .debug_macro   0x0000000000000f1b       0xfd ./x64_cpu_drivers/x64_apic.o
 .debug_macro   0x0000000000001018       0x6a ./x64_cpu_drivers/x64_apic.o
 .debug_macro   0x0000000000001082      0x1df ./x64_cpu_drivers/x64_apic.o
 .debug_macro   0x0000000000001261      0x143 ./x64_cpu_drivers/x64_dt.o
 .debug_macro   0x00000000000013a4       0x19 ./x64_cpu_drivers/x64_dt.o
 .debug_macro   0x00000000000013bd       0x52 ./x64_cpu_drivers/x64_dt.o
 .debug_macro   0x000000000000140f       0x5c ./x64_cpu_drivers/x64_dt.o
 .debug_macro   0x000000000000146b       0x35 ./x64_cpu_drivers/x64_dt.o
 .debug_macro   0x00000000000014a0       0x34 ./x64_cpu_drivers/x64_dt.o
 .debug_macro   0x00000000000014d4       0x16 ./x64_cpu_drivers/x64_dt.o
 .debug_macro   0x00000000000014ea      0x11c ./x64_cpu_drivers/x64_dt.o
 .debug_macro   0x0000000000001606       0x8d ./x64_cpu_drivers/x64_dt.o
 .debug_macro   0x0000000000001693       0x16 ./x64_cpu_drivers/x64_dt.o
 .debug_macro   0x00000000000016a9       0x43 ./x64_cpu_drivers/x64_dt.o
 .debug_macro   0x00000000000016ec       0x57 ./x64_cpu_drivers/x64_dt.o
 .debug_macro   0x0000000000001743       0x34 ./x64_cpu_drivers/x64_dt.o
 .debug_macro   0x0000000000001777       0x10 ./x64_cpu_drivers/x64_dt.o
 .debug_macro   0x0000000000001787       0x58 ./x64_cpu_drivers/x64_dt.o
 .debug_macro   0x00000000000017df      0x182 ./x64_cpu_drivers/x64_dt.o
 .debug_macro   0x0000000000001961      0x356 ./x64_cpu_drivers/x64_dt.o
 .debug_macro   0x0000000000001cb7       0x22 ./x64_cpu_drivers/x64_dt.o
 .debug_macro   0x0000000000001cd9       0x16 ./x64_cpu_drivers/x64_dt.o
 .debug_macro   0x0000000000001cef       0x35 ./x64_cpu_drivers/x64_dt.o
 .debug_macro   0x0000000000001d24      0x11b ./x64_cpu_drivers/x64_dt.o
 .debug_macro   0x0000000000001e3f       0x4c ./x64_cpu_drivers/x64_dt.o
 .debug_macro   0x0000000000001e8b       0x1a ./x64_cpu_drivers/x64_mmu.o
 .debug_macro   0x0000000000001ea5      0x18a ./x64_cpu_drivers/x64_mmu.o
 .debug_macro   0x000000000000202f       0x32 ./startup/multiboot2.o
 .debug_macro   0x0000000000002061      0x162 ./startup/multiboot2.o
 .debug_macro   0x00000000000021c3       0x63 ./startup/x64_isr_handler.o
 .debug_macro   0x0000000000002226      0x13e ./startup/x64_startup.o
 .debug_macro   0x0000000000002364       0x58 ./startup/x64_startup.o
 .debug_macro   0x00000000000023bc      0x182 ./startup/x64_startup.o
 .debug_macro   0x000000000000253e       0x10 ./startup/x64_startup.o

.debug_line     0x0000000000000000      0xa62
 .debug_line    0x0000000000000000       0xce ./x64_cpu_drivers/x64_apic.o
 .debug_line    0x00000000000000ce      0x163 ./x64_cpu_drivers/x64_dt.o
 .debug_line    0x0000000000000231       0x3f ./x64_cpu_drivers/x64_mmu.o
 .debug_line    0x0000000000000270      0x456 ./startup/multiboot2.o
 .debug_line    0x00000000000006c6       0xcf ./startup/x64_boot.o
 .debug_line    0x0000000000000795       0x9b ./startup/x64_isr.o
 .debug_line    0x0000000000000830       0x9c ./startup/x64_isr_handler.o
 .debug_line    0x00000000000008cc      0x196 ./startup/x64_startup.o

.debug_str      0x0000000000000000     0x97f3
 .debug_str     0x0000000000000000     0x4cf7 ./x64_cpu_drivers/x64_apic.o
                                       0x4e41 (size before relaxing)
 .debug_str     0x0000000000004cf7     0x3462 ./x64_cpu_drivers/x64_dt.o
                                       0x6eb1 (size before relaxing)
 .debug_str     0x0000000000008159      0x788 ./x64_cpu_drivers/x64_mmu.o
                                       0x32c6 (size before relaxing)
 .debug_str     0x00000000000088e1      0xac5 ./startup/multiboot2.o
                                       0x369d (size before relaxing)
 .debug_str     0x00000000000093a6       0x54 ./startup/x64_boot.o
 .debug_str     0x00000000000093fa       0x15 ./startup/x64_isr.o
                                         0x53 (size before relaxing)
 .debug_str     0x000000000000940f       0x14 ./startup/x64_isr_handler.o
                                       0x39b4 (size before relaxing)
 .debug_str     0x0000000000009423      0x3d0 ./startup/x64_startup.o
                                       0x7185 (size before relaxing)

.debug_line_str
                0x0000000000000000      0x40d
 .debug_line_str
                0x0000000000000000      0x29c ./x64_cpu_drivers/x64_apic.o
                                        0x309 (size before relaxing)
 .debug_line_str
                0x000000000000029c       0xaf ./x64_cpu_drivers/x64_dt.o
                                        0x399 (size before relaxing)
 .debug_line_str
                0x000000000000034b       0x27 ./x64_cpu_drivers/x64_mmu.o
                                         0xb2 (size before relaxing)
 .debug_line_str
                0x0000000000000372       0x25 ./startup/multiboot2.o
                                         0xae (size before relaxing)
 .debug_line_str
                0x0000000000000397        0xb ./startup/x64_boot.o
                                         0x53 (size before relaxing)
 .debug_line_str
                0x00000000000003a2        0xa ./startup/x64_isr.o
                                         0x51 (size before relaxing)
 .debug_line_str
                0x00000000000003ac       0x1d ./startup/x64_isr_handler.o
                                        0x2cf (size before relaxing)
 .debug_line_str
                0x00000000000003c9       0x44 ./startup/x64_startup.o
                                        0x375 (size before relaxing)

.comment        0x0000000000000000       0x20
 .comment       0x0000000000000000       0x20 ./x64_cpu_drivers/x64_apic.o
                                         0x21 (size before relaxing)
 .comment       0x0000000000000020       0x21 ./x64_cpu_drivers/x64_dt.o
 .comment       0x0000000000000020       0x21 ./x64_cpu_drivers/x64_mmu.o
 .comment       0x0000000000000020       0x21 ./startup/multiboot2.o
 .comment       0x0000000000000020       0x21 ./startup/x64_isr_handler.o
 .comment       0x0000000000000020       0x21 ./startup/x64_startup.o

.debug_rnglists
                0x0000000000000000       0x35
 .debug_rnglists
                0x0000000000000000       0x35 ./startup/x64_boot.o
